target datalayout = "e-m:e-p270:32:32-p271:32:32-p272:64:64-i64:64-i128:128-f80:128-n8:16:32:64-S128"
target triple = "x86_64-pc-linux-gnu"

%struct.hs_scratch = type { i32, i8, i32, i32, i32, i32, i32, %struct.RoseContext, ptr, ptr, ptr, ptr, ptr, ptr, ptr, i64, %struct.catchup_pq, %struct.core_info, %struct.match_deduper, i32, i32, ptr, ptr, ptr, ptr, ptr, i64, i32, i32, i32, i32, i32, ptr, ptr, i8 }
%struct.RoseContext = type { i8, i64, i64, i64, i64, i64, i64, i64, i64, i64, i32, i32, ptr, i64, ptr, i64 }
%struct.catchup_pq = type { ptr, i32 }
%struct.core_info = type { ptr, ptr, ptr, ptr, ptr, ptr, ptr, ptr, i64, ptr, i64, i64, i8 }
%struct.match_deduper = type { [2 x ptr], [2 x ptr], [2 x ptr], i32, i32, i64, i8 }

; Function Attrs: nounwind uwtable
define dso_local i32 @hs_scratch_size(ptr noundef %0, ptr noundef %1) #0 {
  %3 = alloca i32, align 4
  %4 = alloca ptr, align 8
  %5 = alloca ptr, align 8
  store ptr %0, ptr %4, align 8
  store ptr %1, ptr %5, align 8
  %6 = load ptr, ptr %5, align 8
  %7 = icmp ne ptr %6, null
  br i1 %7, label %8, label %21

8:                                                ; preds = %2
  %9 = load ptr, ptr %4, align 8
  %10 = icmp ne ptr %9, null
  br i1 %10, label %11, label %21

11:                                               ; preds = %8
  %12 = load ptr, ptr %4, align 8
  %13 = ptrtoint ptr %12 to i64
  %14 = and i64 %13, 63
  %15 = icmp eq i64 %14, 0
  br i1 %15, label %16, label %21

16:                                               ; preds = %11
  %17 = load ptr, ptr %4, align 8
  %18 = getelementptr inbounds nuw %struct.hs_scratch, ptr %17, i32 0, i32 0
  %19 = load i32, ptr %18, align 64
  %20 = icmp ne i32 %19, 1414480473
  br i1 %20, label %21, label %22

21:                                               ; preds = %16, %11, %8, %2
  store i32 -1, ptr %3, align 4
  br label %28

22:                                               ; preds = %16
  %23 = load ptr, ptr %4, align 8
  %24 = getelementptr inbounds nuw %struct.hs_scratch, ptr %23, i32 0, i32 31
  %25 = load i32, ptr %24, align 32
  %26 = zext i32 %25 to i64
  %27 = load ptr, ptr %5, align 8
  store i64 %26, ptr %27, align 8
  store i32 0, ptr %3, align 4
  br label %28

28:                                               ; preds = %22, %21
  %29 = load i32, ptr %3, align 4
  ret i32 %29
}