; Function Attrs: mustprogress nofree norecurse nosync nounwind willreturn memory(argmem: readwrite) uwtable
define dso_local range(i32 -1, 1) i32 @hs_scratch_size(ptr noundef %0, ptr noundef writeonly %1) local_unnamed_addr #4 {
  %3 = icmp ne ptr %1, null
  %4 = icmp ne ptr %0, null
  %or.cond = and i1 %4, %3
  %5 = ptrtoint ptr %0 to i64
  %6 = and i64 %5, 63
  %7 = icmp eq i64 %6, 0
  %or.cond11 = and i1 %or.cond, %7
  br i1 %or.cond11, label %8, label %14

8:                                                ; preds = %2
  %9 = load i32, ptr %0, align 64
  %.not = icmp eq i32 %9, 1414480473
  br i1 %.not, label %10, label %14

10:                                               ; preds = %8
  %11 = getelementptr inbounds nuw i8, ptr %0, i64 480
  %12 = load i32, ptr %11, align 32
  %13 = zext i32 %12 to i64
  store i64 %13, ptr %1, align 8
  br label %14

14:                                               ; preds = %2, %8, %10
  %.0 = phi i32 [ 0, %10 ], [ -1, %8 ], [ -1, %2 ]
  ret i32 %.0
}